target datalayout = "e-m:e-p270:32:32-p271:32:32-p272:64:64-i64:64-i128:128-f80:128-n8:16:32:64-S128"
target triple = "x86_64-pc-linux-gnu"

%"class.pbrt::ColorEncoding" = type { %"class.pbrt::TaggedPointer" }
%"class.pbrt::TaggedPointer" = type { i64 }
%"class.pbrt::Point2" = type { %"class.pbrt::Tuple2" }
%"class.pbrt::Tuple2" = type { i32, i32 }
%"class.pbrt::Image" = type { i32, %"class.pbrt::Point2", %"class.pstd::vector", %"class.pbrt::ColorEncoding", %"class.pstd::vector.28", %"class.pstd::vector.30", %"class.pstd::vector.32" }
%"class.pstd::vector" = type { %"class.pstd::pmr::polymorphic_allocator.27", ptr, i64, i64 }
%"class.pstd::pmr::polymorphic_allocator.27" = type { ptr }
%"class.pstd::vector.28" = type { %"class.pstd::pmr::polymorphic_allocator.29", ptr, i64, i64 }
%"class.pstd::pmr::polymorphic_allocator.29" = type { ptr }
%"class.pstd::vector.30" = type { %"class.pstd::pmr::polymorphic_allocator.31", ptr, i64, i64 }
%"class.pstd::pmr::polymorphic_allocator.31" = type { ptr }
%"class.pstd::vector.32" = type { %"class.pstd::pmr::polymorphic_allocator", ptr, i64, i64 }
%"class.pstd::pmr::polymorphic_allocator" = type { ptr }
%"class.pstd::span.57" = type { ptr, i64 }

@.str.5 = private unnamed_addr constant [117 x i8] c"generated/home/dtcxzyw/WorkSpace/Projects/compilers/llvm-opt-benchmark/bench/pbrt-v4/pbrt-v4/src/pbrt/util/image.cpp\00", align 1
@.str.24 = private unnamed_addr constant [45 x i8] c"Check failed: %s <= %s with %s = %s, %s = %s\00", align 1
@.str.25 = private unnamed_addr constant [14 x i8] c"values.size()\00", align 1
@.str.26 = private unnamed_addr constant [12 x i8] c"NChannels()\00", align 1

; Function Attrs: mustprogress nounwind uwtable
define linkonce_odr dso_local noundef i64 @_ZNK4pstd6vectorINSt7__cxx1112basic_stringIcSt11char_traitsIcESaIcEEENS_3pmr21polymorphic_allocatorIS6_EEE4sizeEv(ptr noundef nonnull align 8 dereferenceable(32) %0) #7 comdat align 2 {
  %2 = alloca ptr, align 8
  store ptr %0, ptr %2, align 8, !tbaa !162
  %3 = load ptr, ptr %2, align 8
  %4 = getelementptr inbounds nuw %"class.pstd::vector", ptr %3, i32 0, i32 3
  %5 = load i64, ptr %4, align 8, !tbaa !223
  ret i64 %5
}

; Function Attrs: mustprogress nounwind uwtable
define linkonce_odr dso_local noundef nonnull align 4 dereferenceable(4) ptr @_ZN4pstd4spanIKfEixEm(ptr noundef nonnull align 8 dereferenceable(16) %0, i64 noundef %1) #7 comdat align 2 {
  %3 = alloca ptr, align 8
  %4 = alloca i64, align 8
  store ptr %0, ptr %3, align 8, !tbaa !210
  store i64 %1, ptr %4, align 8, !tbaa !114
  %5 = load ptr, ptr %3, align 8
  br label %6

6:                                                ; preds = %2
  br label %7

7:                                                ; preds = %6
  %8 = getelementptr inbounds nuw %"class.pstd::span.57", ptr %5, i32 0, i32 0
  %9 = load ptr, ptr %8, align 8, !tbaa !212
  %10 = load i64, ptr %4, align 8, !tbaa !114
  %11 = getelementptr inbounds nuw float, ptr %9, i64 %10
  ret ptr %11
}

; Function Attrs: mustprogress uwtable
define linkonce_odr dso_local noundef i32 @_ZNK4pbrt5Image9NChannelsEv(ptr noundef nonnull align 8 dereferenceable(152) %0) #1 comdat align 2 {
  %2 = alloca ptr, align 8
  store ptr %0, ptr %2, align 8, !tbaa !66
  %3 = load ptr, ptr %2, align 8
  %4 = getelementptr inbounds nuw %"class.pbrt::Image", ptr %3, i32 0, i32 2
  %5 = call noundef i64 @_ZNK4pstd6vectorINSt7__cxx1112basic_stringIcSt11char_traitsIcESaIcEEENS_3pmr21polymorphic_allocatorIS6_EEE4sizeEv(ptr noundef nonnull align 8 dereferenceable(32) %4)
  %6 = trunc i64 %5 to i32
  ret i32 %6
}

; Function Attrs: mustprogress nounwind uwtable
define linkonce_odr dso_local noundef i64 @_ZNK4pstd4spanIKfE4sizeEv(ptr noundef nonnull align 8 dereferenceable(16) %0) #7 comdat align 2 {
  %2 = alloca ptr, align 8
  store ptr %0, ptr %2, align 8, !tbaa !210
  %3 = load ptr, ptr %2, align 8
  %4 = getelementptr inbounds nuw %"class.pstd::span.57", ptr %3, i32 0, i32 1
  %5 = load i64, ptr %4, align 8, !tbaa !214
  ret i64 %5
}

; Function Attrs: mustprogress uwtable
define dso_local void @_ZN4pbrt5Image11SetChannelsENS_6Point2IiEEN4pstd4spanIKfEE(ptr noundef nonnull align 8 dereferenceable(152) %0, i64 %1, ptr %2, i64 %3) #1 align 2 {
  %5 = alloca %"class.pbrt::Point2", align 4
  %6 = alloca %"class.pstd::span.57", align 8
  %7 = alloca ptr, align 8
  %8 = alloca i64, align 8
  %9 = alloca i32, align 4
  %10 = alloca i64, align 8
  %11 = alloca %"class.pbrt::Point2", align 4
  %12 = getelementptr inbounds nuw %"class.pbrt::Point2", ptr %5, i32 0, i32 0
  store i64 %1, ptr %12, align 4
  %13 = getelementptr inbounds nuw { ptr, i64 }, ptr %6, i32 0, i32 0
  store ptr %2, ptr %13, align 8
  %14 = getelementptr inbounds nuw { ptr, i64 }, ptr %6, i32 0, i32 1
  store i64 %3, ptr %14, align 8
  store ptr %0, ptr %7, align 8, !tbaa !66
  %15 = load ptr, ptr %7, align 8
  br label %16

16:                                               ; preds = %4
  call void @llvm.lifetime.start.p0(i64 8, ptr %8) #5
  %17 = call noundef i64 @_ZNK4pstd4spanIKfE4sizeEv(ptr noundef nonnull align 8 dereferenceable(16) %6)
  store i64 %17, ptr %8, align 8, !tbaa !114
  call void @llvm.lifetime.start.p0(i64 4, ptr %9) #5
  %18 = call noundef i32 @_ZNK4pbrt5Image9NChannelsEv(ptr noundef nonnull align 8 dereferenceable(152) %15)
  store i32 %18, ptr %9, align 4, !tbaa !22
  %19 = load i64, ptr %8, align 8, !tbaa !114
  %20 = load i32, ptr %9, align 4, !tbaa !22
  %21 = sext i32 %20 to i64
  %22 = icmp ule i64 %19, %21
  br i1 %22, label %24, label %23

23:                                               ; preds = %16
  call void @_ZN4pbrt8LogFatalIJRA14_KcRA12_S1_S3_RmS5_RiEEEvNS_8LogLevelEPS1_iS9_DpOT_(i32 noundef 2, ptr noundef @.str.5, i32 noundef 792, ptr noundef @.str.24, ptr noundef nonnull align 1 dereferenceable(14) @.str.25, ptr noundef nonnull align 1 dereferenceable(12) @.str.26, ptr noundef nonnull align 1 dereferenceable(14) @.str.25, ptr noundef nonnull align 8 dereferenceable(8) %8, ptr noundef nonnull align 1 dereferenceable(12) @.str.26, ptr noundef nonnull align 4 dereferenceable(4) %9) #28
  unreachable

24:                                               ; preds = %16
  call void @llvm.lifetime.end.p0(i64 4, ptr %9) #5
  call void @llvm.lifetime.end.p0(i64 8, ptr %8) #5
  br label %25

25:                                               ; preds = %24
  call void @llvm.lifetime.start.p0(i64 8, ptr %10) #5
  store i64 0, ptr %10, align 8, !tbaa !114
  br label %26

26:                                               ; preds = %39, %25
  %27 = load i64, ptr %10, align 8, !tbaa !114
  %28 = call noundef i64 @_ZNK4pstd4spanIKfE4sizeEv(ptr noundef nonnull align 8 dereferenceable(16) %6)
  %29 = icmp ult i64 %27, %28
  br i1 %29, label %31, label %30

30:                                               ; preds = %26
  call void @llvm.lifetime.end.p0(i64 8, ptr %10) #5
  br label %42

31:                                               ; preds = %26
  call void @llvm.memcpy.p0.p0.i64(ptr align 4 %11, ptr align 4 %5, i64 8, i1 false)
  %32 = load i64, ptr %10, align 8, !tbaa !114
  %33 = trunc i64 %32 to i32
  %34 = load i64, ptr %10, align 8, !tbaa !114
  %35 = call noundef nonnull align 4 dereferenceable(4) ptr @_ZN4pstd4spanIKfEixEm(ptr noundef nonnull align 8 dereferenceable(16) %6, i64 noundef %34)
  %36 = load float, ptr %35, align 4, !tbaa !9
  %37 = getelementptr inbounds nuw %"class.pbrt::Point2", ptr %11, i32 0, i32 0
  %38 = load i64, ptr %37, align 4
  call void @_ZN4pbrt5Image10SetChannelENS_6Point2IiEEif(ptr noundef nonnull align 8 dereferenceable(152) %15, i64 %38, i32 noundef %33, float noundef %36)
  br label %39

39:                                               ; preds = %31
  %40 = load i64, ptr %10, align 8, !tbaa !114
  %41 = add i64 %40, 1
  store i64 %41, ptr %10, align 8, !tbaa !114
  br label %26, !llvm.loop !388

42:                                               ; preds = %30
  ret void
}