; Function Attrs: mustprogress uwtable
define dso_local void @_ZN4pbrt5Image11SetChannelsENS_6Point2IiEEN4pstd4spanIKfEE(ptr noundef nonnull align 8 dereferenceable(152) %0, i64 %1, ptr readonly captures(none) %2, i64 %3) local_unnamed_addr #8 align 2 {
  %5 = alloca i64, align 8
  %6 = alloca i32, align 4
  call void @llvm.lifetime.start.p0(i64 8, ptr nonnull %5) #35
  store i64 %3, ptr %5, align 8, !tbaa !24
  call void @llvm.lifetime.start.p0(i64 4, ptr nonnull %6) #35
  %7 = getelementptr inbounds nuw i8, ptr %0, i64 40
  %8 = load i64, ptr %7, align 8, !tbaa !61
  %9 = trunc i64 %8 to i32
  store i32 %9, ptr %6, align 4, !tbaa !13
  %sext = shl i64 %8, 32
  %10 = ashr exact i64 %sext, 32
  %.not = icmp ugt i64 %3, %10
  br i1 %.not, label %11, label %12

11:                                               ; preds = %4
  call void @_ZN4pbrt8LogFatalIJRA14_KcRA12_S1_S3_RmS5_RiEEEvNS_8LogLevelEPS1_iS9_DpOT_(i32 noundef 2, ptr noundef nonnull @.str.5, i32 noundef 792, ptr noundef nonnull @.str.24, ptr noundef nonnull align 1 dereferenceable(14) @.str.25, ptr noundef nonnull align 1 dereferenceable(12) @.str.26, ptr noundef nonnull align 1 dereferenceable(14) @.str.25, ptr noundef nonnull align 8 dereferenceable(8) %5, ptr noundef nonnull align 1 dereferenceable(12) @.str.26, ptr noundef nonnull align 4 dereferenceable(4) %6) #37
  unreachable

12:                                               ; preds = %4
  call void @llvm.lifetime.end.p0(i64 4, ptr nonnull %6) #35
  call void @llvm.lifetime.end.p0(i64 8, ptr nonnull %5) #35
  %.not7 = icmp eq i64 %3, 0
  br i1 %.not7, label %._crit_edge, label %.lr.ph

._crit_edge:                                      ; preds = %.lr.ph, %12
  ret void

.lr.ph:                                           ; preds = %12, %.lr.ph
  %.06 = phi i64 [ %16, %.lr.ph ], [ 0, %12 ]
  %13 = trunc i64 %.06 to i32
  %14 = getelementptr inbounds nuw float, ptr %2, i64 %.06
  %15 = load float, ptr %14, align 4, !tbaa !68
  tail call void @_ZN4pbrt5Image10SetChannelENS_6Point2IiEEif(ptr noundef nonnull align 8 dereferenceable(152) %0, i64 %1, i32 noundef %13, float noundef %15)
  %16 = add nuw i64 %.06, 1
  %exitcond.not = icmp eq i64 %16, %3
  br i1 %exitcond.not, label %._crit_edge, label %.lr.ph, !llvm.loop !305
}